; Function Attrs: nounwind sspstrong uwtable
define internal noundef i32 @parse_iso26_cb(i64 noundef %0, i64 noundef %1) #0 {
  %3 = tail call i64 @rb_reg_nth_match(i32 noundef 1, i64 noundef %0) #13
  %.pr.i = load i64, ptr @parse_iso26_cb.rbimpl_id, align 8, !tbaa !6
  %.not4.i = icmp eq i64 %.pr.i, 0
  br i1 %.not4.i, label %.lr.ph.i, label %rbimpl_intern_const.exit

.lr.ph.i:                                         ; preds = %2, %.lr.ph.i
  %4 = tail call i64 @rb_intern2(ptr noundef nonnull @.str.76, i64 noundef 4) #13
  store i64 %4, ptr @parse_iso26_cb.rbimpl_id, align 8, !tbaa !6
  %.not.i = icmp eq i64 %4, 0
  br i1 %.not.i, label %.lr.ph.i, label %rbimpl_intern_const.exit, !llvm.loop !36

rbimpl_intern_const.exit:                         ; preds = %.lr.ph.i, %2
  %.lcssa.i = phi i64 [ %.pr.i, %2 ], [ %4, %.lr.ph.i ]
  %5 = tail call i64 @rb_id2sym(i64 noundef %.lcssa.i) #13
  %6 = tail call i64 @rb_str_to_inum(i64 noundef %3, i32 noundef 10, i32 noundef 0) #13
  %7 = tail call i64 @rb_hash_aset(i64 noundef %1, i64 noundef %5, i64 noundef %6) #13
  ret i32 1
}